; ModuleID = '31/1144.c'
source_filename = "31/1144.c"
target datalayout = "e-m:e-p270:32:32-p271:32:32-p272:64:64-i64:64-f80:128-n8:16:32:64-S128"
target triple = "x86_64-pc-linux-gnu"

%struct.stu = type { [1000 x i8], %struct.stu* }

@.str = private unnamed_addr constant [4 x i8] c"end\00", align 1

; Function Attrs: noinline nounwind uwtable
define dso_local void @main() #0 {
  %1 = alloca %struct.stu*, align 8
  %2 = alloca %struct.stu*, align 8
  %3 = alloca %struct.stu*, align 8
  %4 = call noalias i8* @malloc(i64 100) #4
  %5 = bitcast i8* %4 to %struct.stu*
  store %struct.stu* %5, %struct.stu** %3, align 8
  store %struct.stu* %5, %struct.stu** %2, align 8
  %6 = load %struct.stu*, %struct.stu** %2, align 8
  store %struct.stu* %6, %struct.stu** %1, align 8
  %7 = load %struct.stu*, %struct.stu** %2, align 8
  %8 = getelementptr inbounds %struct.stu, %struct.stu* %7, i32 0, i32 1
  store %struct.stu* null, %struct.stu** %8, align 8
  %9 = load %struct.stu*, %struct.stu** %2, align 8
  %10 = getelementptr inbounds %struct.stu, %struct.stu* %9, i32 0, i32 0
  %11 = getelementptr inbounds [1000 x i8], [1000 x i8]* %10, i64 0, i64 0
  %12 = call i32 (i8*, ...) bitcast (i32 (...)* @gets to i32 (i8*, ...)*)(i8* %11)
  br label %13

13:                                               ; preds = %19, %0
  %14 = load %struct.stu*, %struct.stu** %2, align 8
  %15 = getelementptr inbounds %struct.stu, %struct.stu* %14, i32 0, i32 0
  %16 = getelementptr inbounds [1000 x i8], [1000 x i8]* %15, i64 0, i64 0
  %17 = call i32 @strcmp(i8* %16, i8* getelementptr inbounds ([4 x i8], [4 x i8]* @.str, i64 0, i64 0)) #5
  %18 = icmp ne i32 %17, 0
  br i1 %18, label %19, label %31

19:                                               ; preds = %13
  %20 = call noalias i8* @malloc(i64 100) #4
  %21 = bitcast i8* %20 to %struct.stu*
  store %struct.stu* %21, %struct.stu** %2, align 8
  %22 = load %struct.stu*, %struct.stu** %2, align 8
  %23 = getelementptr inbounds %struct.stu, %struct.stu* %22, i32 0, i32 0
  %24 = getelementptr inbounds [1000 x i8], [1000 x i8]* %23, i64 0, i64 0
  %25 = call i32 (i8*, ...) bitcast (i32 (...)* @gets to i32 (i8*, ...)*)(i8* %24)
  %26 = load %struct.stu*, %struct.stu** %2, align 8
  store %struct.stu* %26, %struct.stu** %1, align 8
  %27 = load %struct.stu*, %struct.stu** %3, align 8
  %28 = load %struct.stu*, %struct.stu** %2, align 8
  %29 = getelementptr inbounds %struct.stu, %struct.stu* %28, i32 0, i32 1
  store %struct.stu* %27, %struct.stu** %29, align 8
  %30 = load %struct.stu*, %struct.stu** %2, align 8
  store %struct.stu* %30, %struct.stu** %3, align 8
  br label %13

31:                                               ; preds = %13
  %32 = load %struct.stu*, %struct.stu** %1, align 8
  %33 = getelementptr inbounds %struct.stu, %struct.stu* %32, i32 0, i32 1
  %34 = load %struct.stu*, %struct.stu** %33, align 8
  store %struct.stu* %34, %struct.stu** %2, align 8
  br label %35

35:                                               ; preds = %38, %31
  %36 = load %struct.stu*, %struct.stu** %2, align 8
  %37 = icmp ne %struct.stu* %36, null
  br i1 %37, label %38, label %46

38:                                               ; preds = %35
  %39 = load %struct.stu*, %struct.stu** %2, align 8
  %40 = getelementptr inbounds %struct.stu, %struct.stu* %39, i32 0, i32 0
  %41 = getelementptr inbounds [1000 x i8], [1000 x i8]* %40, i64 0, i64 0
  %42 = call i32 @puts(i8* %41)
  %43 = load %struct.stu*, %struct.stu** %2, align 8
  %44 = getelementptr inbounds %struct.stu, %struct.stu* %43, i32 0, i32 1
  %45 = load %struct.stu*, %struct.stu** %44, align 8
  store %struct.stu* %45, %struct.stu** %2, align 8
  br label %35

46:                                               ; preds = %35
  ret void
}

; Function Attrs: nounwind
declare dso_local noalias i8* @malloc(i64) #1

declare dso_local i32 @gets(...) #2

; Function Attrs: nounwind readonly
declare dso_local i32 @strcmp(i8*, i8*) #3

declare dso_local i32 @puts(i8*) #2


!llvm.module.flags = !{!0}
!llvm.ident = !{!1}

!0 = !{i32 1, !"wchar_size", i32 4}
!1 = !{!"clang version 10.0.0-4ubuntu1 "}
